target datalayout = "e-m:e-p270:32:32-p271:32:32-p272:64:64-i64:64-i128:128-f80:128-n8:16:32:64-S128"
target triple = "x86_64-pc-linux-gnu"

%struct.expert_field = type { i32, i32 }

@ei_gsm_a_bssmap_extraneous_data = internal global %struct.expert_field zeroinitializer, align 4
@.str.1122 = private unnamed_addr constant [9 x i8] c"(Chosen)\00", align 1

; Function Attrs: null_pointer_is_valid sspstrong uwtable
define internal void @bssmap_int_ho_cmd(ptr noundef %0, ptr noundef %1, ptr noundef %2, i32 noundef %3, i32 noundef %4) #1 {
  %6 = alloca ptr, align 8
  %7 = alloca ptr, align 8
  %8 = alloca ptr, align 8
  %9 = alloca i32, align 4
  %10 = alloca i32, align 4
  %11 = alloca i32, align 4
  %12 = alloca i32, align 4
  %13 = alloca i32, align 4
  %14 = alloca i32, align 4
  store ptr %0, ptr %6, align 8
  store ptr %1, ptr %7, align 8
  store ptr %2, ptr %8, align 8
  store i32 %3, ptr %9, align 4
  store i32 %4, ptr %10, align 4
  call void @llvm.lifetime.start.p0(i64 4, ptr %11) #5
  call void @llvm.lifetime.start.p0(i64 4, ptr %12) #5
  call void @llvm.lifetime.start.p0(i64 4, ptr %13) #5
  %15 = load i32, ptr %9, align 4
  store i32 %15, ptr %11, align 4
  %16 = load i32, ptr %10, align 4
  store i32 %16, ptr %13, align 4
  %17 = load i32, ptr %13, align 4
  %18 = icmp sle i32 %17, 0
  br i1 %18, label %19, label %20

19:                                               ; preds = %5
  store i32 1, ptr %14, align 4
  br label %148

20:                                               ; preds = %5
  %21 = load ptr, ptr %6, align 8
  %22 = load ptr, ptr %7, align 8
  %23 = load ptr, ptr %8, align 8
  %24 = load i32, ptr %11, align 4
  %25 = load i32, ptr %13, align 4
  %26 = call zeroext i16 @elem_tlv(ptr noundef %21, ptr noundef %22, ptr noundef %23, i8 noundef zeroext 126, i32 noundef 0, i32 noundef 126, i32 noundef %24, i32 noundef %25, ptr noundef @.str.1122)
  %27 = zext i16 %26 to i32
  store i32 %27, ptr %12, align 4
  %28 = icmp ugt i32 %27, 0
  br i1 %28, label %29, label %36

29:                                               ; preds = %20
  %30 = load i32, ptr %12, align 4
  %31 = load i32, ptr %11, align 4
  %32 = add i32 %31, %30
  store i32 %32, ptr %11, align 4
  %33 = load i32, ptr %12, align 4
  %34 = load i32, ptr %13, align 4
  %35 = sub i32 %34, %33
  store i32 %35, ptr %13, align 4
  br label %36

36:                                               ; preds = %29, %20
  %37 = load i32, ptr %13, align 4
  %38 = icmp sle i32 %37, 0
  br i1 %38, label %39, label %40

39:                                               ; preds = %36
  store i32 1, ptr %14, align 4
  br label %148

40:                                               ; preds = %36
  %41 = load ptr, ptr %6, align 8
  %42 = load ptr, ptr %7, align 8
  %43 = load ptr, ptr %8, align 8
  %44 = load i32, ptr %11, align 4
  %45 = call zeroext i16 @elem_tv(ptr noundef %41, ptr noundef %42, ptr noundef %43, i8 noundef zeroext 1, i32 noundef 0, i32 noundef 1, i32 noundef %44, ptr noundef null)
  %46 = zext i16 %45 to i32
  store i32 %46, ptr %12, align 4
  %47 = icmp ugt i32 %46, 0
  br i1 %47, label %48, label %55

48:                                               ; preds = %40
  %49 = load i32, ptr %12, align 4
  %50 = load i32, ptr %11, align 4
  %51 = add i32 %50, %49
  store i32 %51, ptr %11, align 4
  %52 = load i32, ptr %12, align 4
  %53 = load i32, ptr %13, align 4
  %54 = sub i32 %53, %52
  store i32 %54, ptr %13, align 4
  br label %55

55:                                               ; preds = %48, %40
  %56 = load i32, ptr %13, align 4
  %57 = icmp sle i32 %56, 0
  br i1 %57, label %58, label %59

58:                                               ; preds = %55
  store i32 1, ptr %14, align 4
  br label %148

59:                                               ; preds = %55
  %60 = load ptr, ptr %6, align 8
  %61 = load ptr, ptr %7, align 8
  %62 = load ptr, ptr %8, align 8
  %63 = load i32, ptr %11, align 4
  %64 = load i32, ptr %13, align 4
  %65 = call zeroext i16 @elem_tlv(ptr noundef %60, ptr noundef %61, ptr noundef %62, i8 noundef zeroext 124, i32 noundef 0, i32 noundef 124, i32 noundef %63, i32 noundef %64, ptr noundef null)
  %66 = zext i16 %65 to i32
  store i32 %66, ptr %12, align 4
  %67 = icmp ugt i32 %66, 0
  br i1 %67, label %68, label %75

68:                                               ; preds = %59
  %69 = load i32, ptr %12, align 4
  %70 = load i32, ptr %11, align 4
  %71 = add i32 %70, %69
  store i32 %71, ptr %11, align 4
  %72 = load i32, ptr %12, align 4
  %73 = load i32, ptr %13, align 4
  %74 = sub i32 %73, %72
  store i32 %74, ptr %13, align 4
  br label %75

75:                                               ; preds = %68, %59
  %76 = load i32, ptr %13, align 4
  %77 = icmp sle i32 %76, 0
  br i1 %77, label %78, label %79

78:                                               ; preds = %75
  store i32 1, ptr %14, align 4
  br label %148

79:                                               ; preds = %75
  %80 = load ptr, ptr %6, align 8
  %81 = load ptr, ptr %7, align 8
  %82 = load ptr, ptr %8, align 8
  %83 = load i32, ptr %11, align 4
  %84 = call zeroext i16 @elem_tv(ptr noundef %80, ptr noundef %81, ptr noundef %82, i8 noundef zeroext 127, i32 noundef 0, i32 noundef 127, i32 noundef %83, ptr noundef null)
  %85 = zext i16 %84 to i32
  store i32 %85, ptr %12, align 4
  %86 = icmp ugt i32 %85, 0
  br i1 %86, label %87, label %94

87:                                               ; preds = %79
  %88 = load i32, ptr %12, align 4
  %89 = load i32, ptr %11, align 4
  %90 = add i32 %89, %88
  store i32 %90, ptr %11, align 4
  %91 = load i32, ptr %12, align 4
  %92 = load i32, ptr %13, align 4
  %93 = sub i32 %92, %91
  store i32 %93, ptr %13, align 4
  br label %94

94:                                               ; preds = %87, %79
  %95 = load i32, ptr %13, align 4
  %96 = icmp sle i32 %95, 0
  br i1 %96, label %97, label %98

97:                                               ; preds = %94
  store i32 1, ptr %14, align 4
  br label %148

98:                                               ; preds = %94
  %99 = load ptr, ptr %6, align 8
  %100 = load ptr, ptr %7, align 8
  %101 = load ptr, ptr %8, align 8
  %102 = load i32, ptr %11, align 4
  %103 = call zeroext i16 @elem_tv(ptr noundef %99, ptr noundef %100, ptr noundef %101, i8 noundef zeroext 25, i32 noundef 0, i32 noundef 25, i32 noundef %102, ptr noundef null)
  %104 = zext i16 %103 to i32
  store i32 %104, ptr %12, align 4
  %105 = icmp ugt i32 %104, 0
  br i1 %105, label %106, label %113

106:                                              ; preds = %98
  %107 = load i32, ptr %12, align 4
  %108 = load i32, ptr %11, align 4
  %109 = add i32 %108, %107
  store i32 %109, ptr %11, align 4
  %110 = load i32, ptr %12, align 4
  %111 = load i32, ptr %13, align 4
  %112 = sub i32 %111, %110
  store i32 %112, ptr %13, align 4
  br label %113

113:                                              ; preds = %106, %98
  %114 = load i32, ptr %13, align 4
  %115 = icmp sle i32 %114, 0
  br i1 %115, label %116, label %117

116:                                              ; preds = %113
  store i32 1, ptr %14, align 4
  br label %148

117:                                              ; preds = %113
  %118 = load ptr, ptr %6, align 8
  %119 = load ptr, ptr %7, align 8
  %120 = load ptr, ptr %8, align 8
  %121 = load i32, ptr %11, align 4
  %122 = call zeroext i16 @elem_tv(ptr noundef %118, ptr noundef %119, ptr noundef %120, i8 noundef zeroext -117, i32 noundef 0, i32 noundef 139, i32 noundef %121, ptr noundef null)
  %123 = zext i16 %122 to i32
  store i32 %123, ptr %12, align 4
  %124 = icmp ugt i32 %123, 0
  br i1 %124, label %125, label %132

125:                                              ; preds = %117
  %126 = load i32, ptr %12, align 4
  %127 = load i32, ptr %11, align 4
  %128 = add i32 %127, %126
  store i32 %128, ptr %11, align 4
  %129 = load i32, ptr %12, align 4
  %130 = load i32, ptr %13, align 4
  %131 = sub i32 %130, %129
  store i32 %131, ptr %13, align 4
  br label %132

132:                                              ; preds = %125, %117
  %133 = load i32, ptr %13, align 4
  %134 = icmp ugt i32 %133, 0
  br i1 %134, label %135, label %147

135:                                              ; preds = %132
  %136 = load ptr, ptr %7, align 8
  %137 = load ptr, ptr %8, align 8
  %138 = load ptr, ptr %6, align 8
  %139 = load i32, ptr %11, align 4
  %140 = load i32, ptr %13, align 4
  %141 = sub i32 %140, 0
  %142 = call ptr @proto_tree_add_expert(ptr noundef %136, ptr noundef %137, ptr noundef @ei_gsm_a_bssmap_extraneous_data, ptr noundef %138, i32 noundef %139, i32 noundef %141)
  %143 = load i32, ptr %13, align 4
  %144 = sub i32 %143, 0
  %145 = load i32, ptr %11, align 4
  %146 = add i32 %145, %144
  store i32 %146, ptr %11, align 4
  br label %147

147:                                              ; preds = %135, %132
  store i32 0, ptr %14, align 4
  br label %148

148:                                              ; preds = %147, %116, %97, %78, %58, %39, %19
  call void @llvm.lifetime.end.p0(i64 4, ptr %13) #5
  call void @llvm.lifetime.end.p0(i64 4, ptr %12) #5
  call void @llvm.lifetime.end.p0(i64 4, ptr %11) #5
  %149 = load i32, ptr %14, align 4
  switch i32 %149, label %151 [
    i32 0, label %150
    i32 1, label %150
  ]

150:                                              ; preds = %148, %148
  ret void

151:                                              ; preds = %148
  unreachable
}